target datalayout = "e-m:e-p270:32:32-p271:32:32-p272:64:64-i64:64-i128:128-f80:128-n8:16:32:64-S128"
target triple = "x86_64-pc-linux-gnu"

%struct.H5EA_sblock_t = type { %struct.H5C_cache_entry_t, i64, ptr, ptr, ptr, i64, i64, i8, ptr, ptr, i32, i64, i64, i64, i64, i64 }
%struct.H5C_cache_entry_t = type { ptr, i64, i64, ptr, i8, ptr, i8, i8, i8, i8, i32, i8, i8, i8, i8, i8, i32, ptr, i32, i32, i32, i32, i32, i8, i8, ptr, ptr, ptr, ptr, ptr, ptr, i8, i32, i8, i64, ptr, i64, i64, i32, i8, i32, i32, i8, ptr, ptr, ptr }

@H5_page_init_blk_free_list = global { i8, [3 x i8], i32, i32, [4 x i8], i64, ptr, ptr } { i8 0, [3 x i8] zeroinitializer, i32 0, i32 0, [4 x i8] zeroinitializer, i64 0, ptr @.str, ptr null }, align 8
@H5EA_init_g = external global i8, align 1
@H5_libterm_g = external global i8, align 1
@.str.1 = private unnamed_addr constant [104 x i8] c"generated/home/dtcxzyw/WorkSpace/Projects/compilers/llvm-opt-benchmark/bench/hdf5/hdf5/src/H5EAsblock.c\00", align 1
@H5E_EARRAY_g = external global i64, align 8
@__func__.H5EA__sblock_dest = private unnamed_addr constant [18 x i8] c"H5EA__sblock_dest\00", align 1
@H5E_CANTDEC_g = external global i64, align 8
@.str.15 = private unnamed_addr constant [55 x i8] c"can't decrement reference count on shared array header\00", align 1
@H5_H5EA_sblock_t_reg_free_list = internal global { i8, [3 x i8], i32, i32, [4 x i8], ptr, i64, ptr } { i8 0, [3 x i8] zeroinitializer, i32 0, i32 0, [4 x i8] zeroinitializer, ptr @.str.16, i64 368, ptr null }, align 8
@H5_haddr_t_seq_free_list = internal global { { i8, [3 x i8], i32, i32, [4 x i8], i64, ptr, ptr }, i64 } { { i8, [3 x i8], i32, i32, [4 x i8], i64, ptr, ptr } { i8 0, [3 x i8] zeroinitializer, i32 0, i32 0, [4 x i8] zeroinitializer, i64 0, ptr @.str.18, ptr null }, i64 8 }, align 8

; Function Attrs: nounwind uwtable
define i32 @H5EA__sblock_dest(ptr noundef %0) #0 {
  %2 = alloca ptr, align 8
  %3 = alloca i32, align 4
  %4 = alloca i8, align 1
  store ptr %0, ptr %2, align 8, !tbaa !12
  call void @llvm.lifetime.start.p0(i64 4, ptr %3) #4
  store i32 0, ptr %3, align 4, !tbaa !10
  call void @llvm.lifetime.start.p0(i64 1, ptr %4) #4
  store i8 0, ptr %4, align 1, !tbaa !14
  %5 = load i8, ptr @H5EA_init_g, align 1, !tbaa !14, !range !16, !noundef !17
  %6 = trunc i8 %5 to i1
  br i1 %6, label %11, label %7

7:                                                ; preds = %1
  %8 = load i8, ptr @H5_libterm_g, align 1, !tbaa !14, !range !16, !noundef !17
  %9 = trunc i8 %8 to i1
  %10 = xor i1 %9, true
  br label %11

11:                                               ; preds = %7, %1
  %12 = phi i1 [ true, %1 ], [ %10, %7 ]
  %13 = xor i1 %12, true
  %14 = xor i1 %13, true
  %15 = zext i1 %14 to i32
  %16 = sext i32 %15 to i64
  %17 = call i64 @llvm.expect.i64(i64 %16, i64 1)
  %18 = icmp ne i64 %17, 0
  br i1 %18, label %19, label %80

19:                                               ; preds = %11
  %20 = load ptr, ptr %2, align 8, !tbaa !12
  %21 = getelementptr inbounds nuw %struct.H5EA_sblock_t, ptr %20, i32 0, i32 4
  %22 = load ptr, ptr %21, align 8, !tbaa !20
  %23 = icmp ne ptr %22, null
  br i1 %23, label %24, label %76

24:                                               ; preds = %19
  %25 = load ptr, ptr %2, align 8, !tbaa !12
  %26 = getelementptr inbounds nuw %struct.H5EA_sblock_t, ptr %25, i32 0, i32 2
  %27 = load ptr, ptr %26, align 8, !tbaa !50
  %28 = icmp ne ptr %27, null
  br i1 %28, label %29, label %36

29:                                               ; preds = %24
  %30 = load ptr, ptr %2, align 8, !tbaa !12
  %31 = getelementptr inbounds nuw %struct.H5EA_sblock_t, ptr %30, i32 0, i32 2
  %32 = load ptr, ptr %31, align 8, !tbaa !50
  %33 = call ptr @H5FL_seq_free(ptr noundef @H5_haddr_t_seq_free_list, ptr noundef %32)
  %34 = load ptr, ptr %2, align 8, !tbaa !12
  %35 = getelementptr inbounds nuw %struct.H5EA_sblock_t, ptr %34, i32 0, i32 2
  store ptr %33, ptr %35, align 8, !tbaa !50
  br label %36

36:                                               ; preds = %29, %24
  %37 = load ptr, ptr %2, align 8, !tbaa !12
  %38 = getelementptr inbounds nuw %struct.H5EA_sblock_t, ptr %37, i32 0, i32 3
  %39 = load ptr, ptr %38, align 8, !tbaa !54
  %40 = icmp ne ptr %39, null
  br i1 %40, label %41, label %48

41:                                               ; preds = %36
  %42 = load ptr, ptr %2, align 8, !tbaa !12
  %43 = getelementptr inbounds nuw %struct.H5EA_sblock_t, ptr %42, i32 0, i32 3
  %44 = load ptr, ptr %43, align 8, !tbaa !54
  %45 = call ptr @H5FL_blk_free(ptr noundef @H5_page_init_blk_free_list, ptr noundef %44)
  %46 = load ptr, ptr %2, align 8, !tbaa !12
  %47 = getelementptr inbounds nuw %struct.H5EA_sblock_t, ptr %46, i32 0, i32 3
  store ptr %45, ptr %47, align 8, !tbaa !54
  br label %48

48:                                               ; preds = %41, %36
  %49 = load ptr, ptr %2, align 8, !tbaa !12
  %50 = getelementptr inbounds nuw %struct.H5EA_sblock_t, ptr %49, i32 0, i32 4
  %51 = load ptr, ptr %50, align 8, !tbaa !20
  %52 = call i32 @H5EA__hdr_decr(ptr noundef %51)
  %53 = icmp slt i32 %52, 0
  br i1 %53, label %54, label %73

54:                                               ; preds = %48
  br label %55

55:                                               ; preds = %54
  br label %56

56:                                               ; preds = %55
  br label %57

57:                                               ; preds = %56
  %58 = load i64, ptr @H5E_EARRAY_g, align 8, !tbaa !18
  %59 = load i64, ptr @H5E_CANTDEC_g, align 8, !tbaa !18
  %60 = call i32 (ptr, ptr, i32, i64, i64, ptr, ...) @H5E_printf_stack(ptr noundef @.str.1, ptr noundef @__func__.H5EA__sblock_dest, i32 noundef 429, i64 noundef %58, i64 noundef %59, ptr noundef @.str.15)
  br label %61

61:                                               ; preds = %57
  br label %62

62:                                               ; preds = %61
  store i8 1, ptr %4, align 1, !tbaa !14
  %63 = load i8, ptr %4, align 1, !tbaa !14, !range !16, !noundef !17
  %64 = trunc i8 %63 to i1
  %65 = zext i1 %64 to i8
  store i8 %65, ptr %4, align 1, !tbaa !14
  br label %66

66:                                               ; preds = %62
  br label %67

67:                                               ; preds = %66
  br label %68

68:                                               ; preds = %67
  store i32 -1, ptr %3, align 4, !tbaa !10
  br label %79

69:                                               ; No predecessors!
  br label %70

70:                                               ; preds = %69
  br label %71

71:                                               ; preds = %70
  br label %72

72:                                               ; preds = %71
  br label %73

73:                                               ; preds = %72, %48
  %74 = load ptr, ptr %2, align 8, !tbaa !12
  %75 = getelementptr inbounds nuw %struct.H5EA_sblock_t, ptr %74, i32 0, i32 4
  store ptr null, ptr %75, align 8, !tbaa !20
  br label %76

76:                                               ; preds = %73, %19
  %77 = load ptr, ptr %2, align 8, !tbaa !12
  %78 = call ptr @H5FL_reg_free(ptr noundef @H5_H5EA_sblock_t_reg_free_list, ptr noundef %77)
  store ptr %78, ptr %2, align 8, !tbaa !12
  br label %79

79:                                               ; preds = %76, %68
  br label %80

80:                                               ; preds = %79, %11
  %81 = load i32, ptr %3, align 4, !tbaa !10
  call void @llvm.lifetime.end.p0(i64 1, ptr %4) #4
  call void @llvm.lifetime.end.p0(i64 4, ptr %3) #4
  ret i32 %81
}