; Function Attrs: nounwind uwtable
define range(i32 -1, 1) i32 @H5EA__sblock_dest(ptr noundef %0) local_unnamed_addr #0 {
  %2 = load i8, ptr @H5EA_init_g, align 1, !tbaa !3, !range !7, !noundef !8
  %3 = trunc nuw i8 %2 to i1
  %4 = load i8, ptr @H5_libterm_g, align 1, !range !7
  %5 = trunc nuw i8 %4 to i1
  %6 = xor i1 %5, true
  %7 = select i1 %3, i1 true, i1 %6
  br i1 %7, label %8, label %32, !prof !9

8:                                                ; preds = %1
  %9 = getelementptr inbounds nuw i8, ptr %0, i64 272
  %10 = load ptr, ptr %9, align 8, !tbaa !12
  %.not = icmp eq ptr %10, null
  br i1 %.not, label %30, label %11

11:                                               ; preds = %8
  %12 = getelementptr inbounds nuw i8, ptr %0, i64 256
  %13 = load ptr, ptr %12, align 8, !tbaa !46
  %.not13 = icmp eq ptr %13, null
  br i1 %.not13, label %16, label %14

14:                                               ; preds = %11
  %15 = tail call ptr @H5FL_seq_free(ptr noundef nonnull @H5_haddr_t_seq_free_list, ptr noundef nonnull %13) #3
  store ptr %15, ptr %12, align 8, !tbaa !46
  br label %16

16:                                               ; preds = %14, %11
  %17 = getelementptr inbounds nuw i8, ptr %0, i64 264
  %18 = load ptr, ptr %17, align 8, !tbaa !50
  %.not14 = icmp eq ptr %18, null
  br i1 %.not14, label %21, label %19

19:                                               ; preds = %16
  %20 = tail call ptr @H5FL_blk_free(ptr noundef nonnull @H5_page_init_blk_free_list, ptr noundef nonnull %18) #3
  store ptr %20, ptr %17, align 8, !tbaa !50
  br label %21

21:                                               ; preds = %19, %16
  %22 = load ptr, ptr %9, align 8, !tbaa !12
  %23 = tail call i32 @H5EA__hdr_decr(ptr noundef %22) #3
  %24 = icmp slt i32 %23, 0
  br i1 %24, label %25, label %29

25:                                               ; preds = %21
  %26 = load i64, ptr @H5E_EARRAY_g, align 8, !tbaa !10
  %27 = load i64, ptr @H5E_CANTDEC_g, align 8, !tbaa !10
  %28 = tail call i32 (ptr, ptr, i32, i64, i64, ptr, ...) @H5E_printf_stack(ptr noundef nonnull @.str.1, ptr noundef nonnull @__func__.H5EA__sblock_dest, i32 noundef 429, i64 noundef %26, i64 noundef %27, ptr noundef nonnull @.str.15) #3
  br label %32

29:                                               ; preds = %21
  store ptr null, ptr %9, align 8, !tbaa !12
  br label %30

30:                                               ; preds = %29, %8
  %31 = tail call ptr @H5FL_reg_free(ptr noundef nonnull @H5_H5EA_sblock_t_reg_free_list, ptr noundef nonnull %0) #3
  br label %32

32:                                               ; preds = %25, %30, %1
  %.0 = phi i32 [ -1, %25 ], [ 0, %30 ], [ 0, %1 ]
  ret i32 %.0
}